; Function Attrs: nounwind uwtable
define noalias noundef ptr @Gia_ManComputeSwitchProbs(ptr noundef %0, i32 noundef %1, i32 noundef %2, i32 noundef %3) local_unnamed_addr #2 {
  %5 = alloca %struct.Gia_ParSwi_t_, align 4
  call void @llvm.lifetime.start.p0(i64 28, ptr nonnull %5) #17
  store i32 10, ptr %5, align 4, !tbaa !3
  %6 = getelementptr inbounds nuw i8, ptr %5, i64 4
  %7 = getelementptr inbounds nuw i8, ptr %5, i64 12
  store i32 0, ptr %7, align 4, !tbaa !10
  %8 = getelementptr inbounds nuw i8, ptr %5, i64 24
  store i32 0, ptr %8, align 4, !tbaa !13
  store i32 %1, ptr %6, align 4, !tbaa !8
  %9 = tail call ptr @Abc_FrameReadFlag(ptr noundef nonnull @.str.8) #17
  %.not = icmp eq ptr %9, null
  br i1 %.not, label %14, label %10

10:                                               ; preds = %4
  %11 = tail call ptr @Abc_FrameReadFlag(ptr noundef nonnull @.str.8) #17
  %12 = tail call i64 @strtol(ptr noundef nonnull captures(none) %11, ptr noundef null, i32 noundef 10) #17
  %13 = trunc i64 %12 to i32
  store i32 %13, ptr %6, align 4, !tbaa !8
  br label %14

14:                                               ; preds = %10, %4
  %15 = getelementptr inbounds nuw i8, ptr %5, i64 20
  %16 = getelementptr inbounds nuw i8, ptr %5, i64 16
  %17 = getelementptr inbounds nuw i8, ptr %5, i64 8
  store i32 %2, ptr %17, align 4, !tbaa !9
  %.not12 = icmp ne i32 %3, 0
  %. = zext i1 %.not12 to i32
  %not..not12 = xor i1 %.not12, true
  %.14 = zext i1 %not..not12 to i32
  store i32 %., ptr %16, align 4, !tbaa !11
  store i32 %.14, ptr %15, align 4, !tbaa !12
  %18 = call ptr @Gia_ManSwiSimulate(ptr noundef %0, ptr noundef nonnull %5)
  call void @llvm.lifetime.end.p0(i64 28, ptr nonnull %5) #17
  ret ptr %18
}